target datalayout = "e-m:e-p270:32:32-p271:32:32-p272:64:64-i64:64-i128:128-f80:128-n8:16:32:64-S128"
target triple = "x86_64-pc-linux-gnu"

%struct.Color = type { i8, i8, i8, i8 }

; Function Attrs: nounwind uwtable
define void @DrawEllipse(i32 noundef %0, i32 noundef %1, float noundef %2, float noundef %3, i32 %4) #2 {
  %6 = alloca %struct.Color, align 1
  %7 = alloca i32, align 4
  %8 = alloca i32, align 4
  %9 = alloca float, align 4
  %10 = alloca float, align 4
  %11 = alloca i32, align 4
  store i32 %4, ptr %6, align 1
  store i32 %0, ptr %7, align 4
  store i32 %1, ptr %8, align 4
  store float %2, ptr %9, align 4
  store float %3, ptr %10, align 4
  call void @rlBegin(i32 noundef 4)
  call void @llvm.lifetime.start.p0(i64 4, ptr %11) #8
  store i32 0, ptr %11, align 4
  br label %12

12:                                               ; preds = %63, %5
  %13 = load i32, ptr %11, align 4
  %14 = icmp slt i32 %13, 360
  br i1 %14, label %16, label %15

15:                                               ; preds = %12
  call void @llvm.lifetime.end.p0(i64 4, ptr %11) #8
  br label %66

16:                                               ; preds = %12
  %17 = getelementptr inbounds nuw %struct.Color, ptr %6, i32 0, i32 0
  %18 = load i8, ptr %17, align 1
  %19 = getelementptr inbounds nuw %struct.Color, ptr %6, i32 0, i32 1
  %20 = load i8, ptr %19, align 1
  %21 = getelementptr inbounds nuw %struct.Color, ptr %6, i32 0, i32 2
  %22 = load i8, ptr %21, align 1
  %23 = getelementptr inbounds nuw %struct.Color, ptr %6, i32 0, i32 3
  %24 = load i8, ptr %23, align 1
  call void @rlColor4ub(i8 noundef zeroext %18, i8 noundef zeroext %20, i8 noundef zeroext %22, i8 noundef zeroext %24)
  %25 = load i32, ptr %7, align 4
  %26 = sitofp i32 %25 to float
  %27 = load i32, ptr %8, align 4
  %28 = sitofp i32 %27 to float
  call void @rlVertex2f(float noundef %26, float noundef %28)
  %29 = load i32, ptr %7, align 4
  %30 = sitofp i32 %29 to float
  %31 = load i32, ptr %11, align 4
  %32 = add nsw i32 %31, 10
  %33 = sitofp i32 %32 to float
  %34 = fmul float 0x3F91DF46A0000000, %33
  %35 = call float @cosf(float noundef %34) #8
  %36 = load float, ptr %9, align 4
  %37 = call float @llvm.fmuladd.f32(float %35, float %36, float %30)
  %38 = load i32, ptr %8, align 4
  %39 = sitofp i32 %38 to float
  %40 = load i32, ptr %11, align 4
  %41 = add nsw i32 %40, 10
  %42 = sitofp i32 %41 to float
  %43 = fmul float 0x3F91DF46A0000000, %42
  %44 = call float @sinf(float noundef %43) #8
  %45 = load float, ptr %10, align 4
  %46 = call float @llvm.fmuladd.f32(float %44, float %45, float %39)
  call void @rlVertex2f(float noundef %37, float noundef %46)
  %47 = load i32, ptr %7, align 4
  %48 = sitofp i32 %47 to float
  %49 = load i32, ptr %11, align 4
  %50 = sitofp i32 %49 to float
  %51 = fmul float 0x3F91DF46A0000000, %50
  %52 = call float @cosf(float noundef %51) #8
  %53 = load float, ptr %9, align 4
  %54 = call float @llvm.fmuladd.f32(float %52, float %53, float %48)
  %55 = load i32, ptr %8, align 4
  %56 = sitofp i32 %55 to float
  %57 = load i32, ptr %11, align 4
  %58 = sitofp i32 %57 to float
  %59 = fmul float 0x3F91DF46A0000000, %58
  %60 = call float @sinf(float noundef %59) #8
  %61 = load float, ptr %10, align 4
  %62 = call float @llvm.fmuladd.f32(float %60, float %61, float %56)
  call void @rlVertex2f(float noundef %54, float noundef %62)
  br label %63

63:                                               ; preds = %16
  %64 = load i32, ptr %11, align 4
  %65 = add nsw i32 %64, 10
  store i32 %65, ptr %11, align 4
  br label %12

66:                                               ; preds = %15
  call void @rlEnd()
  ret void
}