; Function Attrs: nounwind uwtable
define void @DrawEllipse(i32 noundef %0, i32 noundef %1, float noundef %2, float noundef %3, i32 %4) local_unnamed_addr #7 {
  %.sroa.0.0.extract.trunc = trunc i32 %4 to i8
  %.sroa.2.0.extract.shift = lshr i32 %4, 8
  %.sroa.2.0.extract.trunc = trunc i32 %.sroa.2.0.extract.shift to i8
  %.sroa.3.0.extract.shift = lshr i32 %4, 16
  %.sroa.3.0.extract.trunc = trunc i32 %.sroa.3.0.extract.shift to i8
  %.sroa.4.0.extract.shift = lshr i32 %4, 24
  %.sroa.4.0.extract.trunc = trunc nuw i32 %.sroa.4.0.extract.shift to i8
  tail call void @rlBegin(i32 noundef 4) #16
  %6 = sitofp i32 %0 to float
  %7 = sitofp i32 %1 to float
  br label %9

8:                                                ; preds = %9
  tail call void @rlEnd() #16
  ret void

9:                                                ; preds = %5, %9
  %.015 = phi i32 [ 0, %5 ], [ %10, %9 ]
  tail call void @rlColor4ub(i8 noundef zeroext %.sroa.0.0.extract.trunc, i8 noundef zeroext %.sroa.2.0.extract.trunc, i8 noundef zeroext %.sroa.3.0.extract.trunc, i8 noundef zeroext %.sroa.4.0.extract.trunc) #16
  tail call void @rlVertex2f(float noundef %6, float noundef %7) #16
  %10 = add nuw nsw i32 %.015, 10
  %11 = uitofp nneg i32 %10 to float
  %12 = fmul float %11, 0x3F91DF46A0000000
  %13 = tail call float @cosf(float noundef %12) #16
  %14 = tail call float @llvm.fmuladd.f32(float %13, float %2, float %6)
  %15 = tail call float @sinf(float noundef %12) #16
  %16 = tail call float @llvm.fmuladd.f32(float %15, float %3, float %7)
  tail call void @rlVertex2f(float noundef %14, float noundef %16) #16
  %17 = uitofp nneg i32 %.015 to float
  %18 = fmul float %17, 0x3F91DF46A0000000
  %19 = tail call float @cosf(float noundef %18) #16
  %20 = tail call float @llvm.fmuladd.f32(float %19, float %2, float %6)
  %21 = tail call float @sinf(float noundef %18) #16
  %22 = tail call float @llvm.fmuladd.f32(float %21, float %3, float %7)
  tail call void @rlVertex2f(float noundef %20, float noundef %22) #16
  %23 = icmp samesign ult i32 %.015, 350
  br i1 %23, label %9, label %8
}